Certificate Request:
    Data:
        Version: 1 (0x0)
        Subject: C=NO, ST=Oslo, L=Oslo, O=TLS Experts, CN=OCSP Responder
        Subject Public Key Info:
            Public Key Algorithm: ED448
                ED448 Public-Key:
                pub:
                    4c:ce:9d:13:bc:b9:6a:06:53:60:3b:ff:90:d3:0e:
                    5d:b4:24:f1:85:4e:d8:9e:73:77:86:90:a9:bb:75:
                    13:60:83:73:67:b4:25:86:c5:f9:99:42:c9:6f:66:
                    be:22:dc:c0:ef:0e:79:15:1f:64:51:00
        Attributes:
            (none)
            Requested Extensions:
    Signature Algorithm: ED448
    Signature Value:
        95:52:1a:c6:91:d4:04:f9:cb:16:33:87:1b:28:bc:ed:f5:75:
        b2:87:7b:f4:43:43:c5:e9:e8:a0:35:5c:93:64:c1:79:db:96:
        a9:7a:84:0d:4b:15:32:93:34:e3:a8:7a:de:11:68:8d:dc:ef:
        94:88:00:5e:34:57:1b:db:8f:ae:ce:4e:a1:f5:c1:ab:94:c6:
        9b:37:f4:15:41:05:01:c7:a5:e6:c5:76:0b:4d:04:99:f0:fc:
        a6:17:fa:6d:33:7d:6d:63:af:54:70:64:22:12:77:41:c1:10:
        10:44:87:8e:10:00
-----BEGIN CERTIFICATE REQUEST-----
MIIBJTCBpgIBADBaMQswCQYDVQQGEwJOTzENMAsGA1UECAwET3NsbzENMAsGA1UE
BwwET3NsbzEUMBIGA1UECgwLVExTIEV4cGVydHMxFzAVBgNVBAMMDk9DU1AgUmVz
cG9uZGVyMEMwBQYDK2VxAzoATM6dE7y5agZTYDv/kNMOXbQk8YVO2J5zd4aQqbt1
E2CDc2e0JYbF+ZlCyW9mviLcwO8OeRUfZFEAoAAwBQYDK2VxA3MAlVIaxpHUBPnL
FjOHGyi87fV1sod79ENDxenooDVck2TBeduWqXqEDUsVMpM046h63hFojdzvlIgA
XjRXG9uPrs5OofXBq5TGmzf0FUEFAcel5sV2C00EmfD8phf6bTN9bWOvVHBkIhJ3
QcEQEESHjhAA
-----END CERTIFICATE REQUEST-----
