Certificate:
    Data:
        Version: 3 (0x2)
        Serial Number:
            26:32:fe:d9:34:e4:d4:b9:ba:2d:f1:39:56:d8:03:34:82:02:7f:fb
        Signature Algorithm: ED448
        Issuer: C=NO, ST=Oslo, L=Oslo, O=TLS Experts, CN=Root CA
        Validity
            Not Before: Aug  9 17:35:05 2025 GMT
            Not After : Aug  7 17:35:05 2035 GMT
        Subject: C=NO, ST=Oslo, L=Oslo, O=TLS Experts, CN=Root CA
        Subject Public Key Info:
            Public Key Algorithm: ED448
                ED448 Public-Key:
                pub:
                    d2:fa:df:0b:ce:c3:20:bf:0a:e8:07:0f:18:59:27:
                    e8:75:3d:77:e5:b5:23:b6:c9:11:be:29:c5:47:cf:
                    7e:d0:ef:00:4a:95:1f:63:e2:69:0a:b4:a9:34:7e:
                    54:61:8f:a1:32:cf:28:dc:c5:20:74:80
        X509v3 extensions:
            X509v3 Subject Key Identifier: 
                1B:7D:4A:B2:F3:B4:21:71:2A:80:9A:D0:1C:FD:06:FC:FE:01:45:84
            X509v3 Authority Key Identifier: 
                1B:7D:4A:B2:F3:B4:21:71:2A:80:9A:D0:1C:FD:06:FC:FE:01:45:84
            X509v3 Basic Constraints: critical
                CA:TRUE
            X509v3 Key Usage: critical
                Digital Signature, Certificate Sign, CRL Sign
            X509v3 CRL Distribution Points: 
                Full Name:
                  URI:http://crl.tls-experts.no/root_crl.der

    Signature Algorithm: ED448
    Signature Value:
        e7:fa:fb:55:59:95:4c:90:bc:36:46:fe:c3:6a:f4:15:30:e4:
        77:82:ca:18:e4:4e:8c:2d:03:8b:86:e0:58:71:a9:d6:ee:f2:
        42:2c:43:00:ec:a6:8a:5d:60:f6:60:9c:e1:0a:0f:68:13:d7:
        c3:f9:00:b6:77:a7:b0:8a:38:1c:bd:70:4f:61:da:98:0d:28:
        de:a2:79:c1:eb:04:49:7a:81:5f:a8:78:29:38:84:34:a3:d2:
        38:81:e4:a4:a7:20:76:54:a6:07:28:c3:99:2f:53:31:62:40:
        95:8c:a3:dd:1a:00
-----BEGIN CERTIFICATE-----
MIICUTCCAdGgAwIBAgIUJjL+2TTk1Lm6LfE5VtgDNIICf/swBQYDK2VxMFMxCzAJ
BgNVBAYTAk5PMQ0wCwYDVQQIDARPc2xvMQ0wCwYDVQQHDARPc2xvMRQwEgYDVQQK
DAtUTFMgRXhwZXJ0czEQMA4GA1UEAwwHUm9vdCBDQTAeFw0yNTA4MDkxNzM1MDVa
Fw0zNTA4MDcxNzM1MDVaMFMxCzAJBgNVBAYTAk5PMQ0wCwYDVQQIDARPc2xvMQ0w
CwYDVQQHDARPc2xvMRQwEgYDVQQKDAtUTFMgRXhwZXJ0czEQMA4GA1UEAwwHUm9v
dCBDQTBDMAUGAytlcQM6ANL63wvOwyC/CugHDxhZJ+h1PXfltSO2yRG+KcVHz37Q
7wBKlR9j4mkKtKk0flRhj6EyzyjcxSB0gKOBnTCBmjAdBgNVHQ4EFgQUG31KsvO0
IXEqgJrQHP0G/P4BRYQwHwYDVR0jBBgwFoAUG31KsvO0IXEqgJrQHP0G/P4BRYQw
DwYDVR0TAQH/BAUwAwEB/zAOBgNVHQ8BAf8EBAMCAYYwNwYDVR0fBDAwLjAsoCqg
KIYmaHR0cDovL2NybC50bHMtZXhwZXJ0cy5uby9yb290X2NybC5kZXIwBQYDK2Vx
A3MA5/r7VVmVTJC8Nkb+w2r0FTDkd4LKGOROjC0Di4bgWHGp1u7yQixDAOymil1g
9mCc4QoPaBPXw/kAtnensIo4HL1wT2HamA0o3qJ5wesESXqBX6h4KTiENKPSOIHk
pKcgdlSmByjDmS9TMWJAlYyj3RoA
-----END CERTIFICATE-----
