Certificate:
    Data:
        Version: 3 (0x2)
        Serial Number:
            4b:a8:16:c4:77:1e:ee:4b:28:30:7a:eb:69:0e:b0:5c:d8:b3:9a:8e
        Signature Algorithm: ED448
        Issuer: C=NO, ST=Oslo, L=Oslo, O=TLS Experts, CN=Intermediate CA
        Validity
            Not Before: Aug 10 08:25:10 2025 GMT
            Not After : Aug 10 08:25:10 2026 GMT
        Subject: C=NO, ST=Oslo, L=Oslo, O=TLS Experts, CN=OCSP Responder
        Subject Public Key Info:
            Public Key Algorithm: ED448
                ED448 Public-Key:
                pub:
                    4c:ce:9d:13:bc:b9:6a:06:53:60:3b:ff:90:d3:0e:
                    5d:b4:24:f1:85:4e:d8:9e:73:77:86:90:a9:bb:75:
                    13:60:83:73:67:b4:25:86:c5:f9:99:42:c9:6f:66:
                    be:22:dc:c0:ef:0e:79:15:1f:64:51:00
        X509v3 extensions:
            X509v3 Subject Key Identifier: 
                CB:9E:94:FF:A7:D5:80:57:06:AF:4B:54:B3:C7:4D:17:2D:16:22:7C
            X509v3 Authority Key Identifier: 
                EF:66:F2:E6:7A:A0:E6:9B:CF:6F:BA:19:42:45:63:F4:CD:9E:67:11
            X509v3 Basic Constraints: critical
                CA:FALSE
            Netscape Cert Type: 
                SSL Server
            X509v3 Key Usage: critical
                Digital Signature, Key Encipherment
            X509v3 Extended Key Usage: 
                TLS Web Server Authentication
            X509v3 CRL Distribution Points: 
                Full Name:
                  URI:http://crl.tls-experts.no/intermediate_crl.der

            Authority Information Access: 
                OCSP - URI:http://ocsp.tls-experts.no/
    Signature Algorithm: ED448
    Signature Value:
        55:ab:cf:68:d2:37:5c:a0:d5:fa:dc:b9:1e:80:86:20:3d:5e:
        dc:fa:bb:f8:cb:86:53:88:6f:44:c4:88:48:38:26:36:bb:2b:
        f9:0c:cd:ee:c8:d8:be:7a:de:a7:77:9a:7b:d8:96:d3:e3:33:
        72:79:80:74:ef:e8:9e:c4:21:d5:d9:7c:8d:69:9b:15:13:db:
        ed:3e:18:91:4b:5d:e7:76:78:42:e8:5a:10:38:d8:88:c9:16:
        0c:43:ff:7f:7b:13:ef:e4:76:83:3e:31:b0:cc:23:f9:9a:17:
        9f:ee:de:be:36:00
-----BEGIN CERTIFICATE-----
MIICyDCCAkigAwIBAgIUS6gWxHce7ksoMHrraQ6wXNizmo4wBQYDK2VxMFsxCzAJ
BgNVBAYTAk5PMQ0wCwYDVQQIDARPc2xvMQ0wCwYDVQQHDARPc2xvMRQwEgYDVQQK
DAtUTFMgRXhwZXJ0czEYMBYGA1UEAwwPSW50ZXJtZWRpYXRlIENBMB4XDTI1MDgx
MDA4MjUxMFoXDTI2MDgxMDA4MjUxMFowWjELMAkGA1UEBhMCTk8xDTALBgNVBAgM
BE9zbG8xDTALBgNVBAcMBE9zbG8xFDASBgNVBAoMC1RMUyBFeHBlcnRzMRcwFQYD
VQQDDA5PQ1NQIFJlc3BvbmRlcjBDMAUGAytlcQM6AEzOnRO8uWoGU2A7/5DTDl20
JPGFTtiec3eGkKm7dRNgg3NntCWGxfmZQslvZr4i3MDvDnkVH2RRAKOCAQQwggEA
MB0GA1UdDgQWBBTLnpT/p9WAVwavS1Szx00XLRYifDAfBgNVHSMEGDAWgBTvZvLm
eqDmm89vuhlCRWP0zZ5nETAMBgNVHRMBAf8EAjAAMBEGCWCGSAGG+EIBAQQEAwIG
QDAOBgNVHQ8BAf8EBAMCBaAwEwYDVR0lBAwwCgYIKwYBBQUHAwEwPwYDVR0fBDgw
NjA0oDKgMIYuaHR0cDovL2NybC50bHMtZXhwZXJ0cy5uby9pbnRlcm1lZGlhdGVf
Y3JsLmRlcjA3BggrBgEFBQcBAQQrMCkwJwYIKwYBBQUHMAGGG2h0dHA6Ly9vY3Nw
LnRscy1leHBlcnRzLm5vLzAFBgMrZXEDcwBVq89o0jdcoNX63LkegIYgPV7c+rv4
y4ZTiG9ExIhIOCY2uyv5DM3uyNi+et6nd5p72JbT4zNyeYB07+iexCHV2XyNaZsV
E9vtPhiRS13ndnhC6FoQONiIyRYMQ/9/exPv5HaDPjGwzCP5mhef7t6+NgA=
-----END CERTIFICATE-----
