Certificate Request:
    Data:
        Version: 1 (0x0)
        Subject: C=NO, ST=Oslo, L=Oslo, O=TLS Experts, CN=Intermediate CA
        Subject Public Key Info:
            Public Key Algorithm: ED448
                ED448 Public-Key:
                pub:
                    02:47:45:dd:b7:4c:e7:10:dc:89:2d:e8:26:eb:c3:
                    bb:1f:6c:f4:df:63:1a:2c:a6:16:a0:28:4d:24:bb:
                    9b:2b:84:14:81:9b:31:8b:cd:c4:98:de:a2:0a:68:
                    e8:08:8b:70:e3:fd:4a:0a:36:ab:1a:80
        Attributes:
            (none)
            Requested Extensions:
    Signature Algorithm: ED448
    Signature Value:
        96:81:b7:e6:5d:48:da:f4:b8:f1:4f:49:bc:c5:e9:70:d1:0a:
        02:f5:e5:9a:a8:ab:d7:eb:f2:4e:c8:a5:9a:27:19:6c:c9:4d:
        d9:18:8f:9a:09:c8:07:54:3b:4e:0f:57:5f:7d:9c:cd:f6:4c:
        41:76:00:b1:e2:f6:c7:2e:33:e6:03:dd:b4:cc:b6:2d:96:33:
        f3:23:2d:c9:36:01:d4:c5:03:60:00:48:aa:0d:d7:fc:f6:69:
        24:e8:bc:94:38:8c:a6:f2:e6:f6:84:b8:2e:85:d4:d6:be:53:
        48:c6:57:51:25:00
-----BEGIN CERTIFICATE REQUEST-----
MIIBJjCBpwIBADBbMQswCQYDVQQGEwJOTzENMAsGA1UECAwET3NsbzENMAsGA1UE
BwwET3NsbzEUMBIGA1UECgwLVExTIEV4cGVydHMxGDAWBgNVBAMMD0ludGVybWVk
aWF0ZSBDQTBDMAUGAytlcQM6AAJHRd23TOcQ3Ikt6Cbrw7sfbPTfYxosphagKE0k
u5srhBSBmzGLzcSY3qIKaOgIi3Dj/UoKNqsagKAAMAUGAytlcQNzAJaBt+ZdSNr0
uPFPSbzF6XDRCgL15Zqoq9fr8k7IpZonGWzJTdkYj5oJyAdUO04PV199nM32TEF2
ALHi9scuM+YD3bTMti2WM/MjLck2AdTFA2AASKoN1/z2aSTovJQ4jKby5vaEuC6F
1Na+U0jGV1ElAA==
-----END CERTIFICATE REQUEST-----
