Certificate Request:
    Data:
        Version: 1 (0x0)
        Subject: C=NO, ST=Oslo, L=Oslo, O=TLS Experts, CN=server2.tls-experts.no
        Subject Public Key Info:
            Public Key Algorithm: ED448
                ED448 Public-Key:
                pub:
                    e4:3f:7d:53:46:a8:33:fc:eb:ac:2a:9c:04:08:d8:
                    98:c7:9a:b4:e9:8e:18:7d:1c:99:da:5c:6c:44:76:
                    8d:a5:fc:b3:04:9f:01:c3:9a:d3:82:5e:ed:6a:a3:
                    96:78:94:2d:f3:04:0c:d2:31:30:b0:00
        Attributes:
            (none)
            Requested Extensions:
    Signature Algorithm: ED448
    Signature Value:
        91:91:4f:f7:3f:42:45:28:34:49:2f:f8:b0:18:39:1a:da:00:
        c3:a2:7b:1d:4b:1f:60:70:ae:4b:42:27:93:04:9c:16:f3:b4:
        8f:42:57:c3:06:7f:24:1a:42:fa:24:b0:e1:e1:75:a6:54:b8:
        1c:43:80:ee:d6:57:e6:d8:71:a2:27:c8:d6:73:49:e5:ab:e4:
        ee:bd:54:d6:de:91:03:20:a7:1d:28:a5:73:22:14:ce:e5:a5:
        f6:4a:92:7d:09:5f:39:a8:2b:1c:dd:72:21:27:3c:fb:cc:b5:
        1d:9e:b4:b3:20:00
-----BEGIN CERTIFICATE REQUEST-----
MIIBLTCBrgIBADBiMQswCQYDVQQGEwJOTzENMAsGA1UECAwET3NsbzENMAsGA1UE
BwwET3NsbzEUMBIGA1UECgwLVExTIEV4cGVydHMxHzAdBgNVBAMMFnNlcnZlcjIu
dGxzLWV4cGVydHMubm8wQzAFBgMrZXEDOgDkP31TRqgz/OusKpwECNiYx5q06Y4Y
fRyZ2lxsRHaNpfyzBJ8Bw5rTgl7taqOWeJQt8wQM0jEwsACgADAFBgMrZXEDcwCR
kU/3P0JFKDRJL/iwGDka2gDDonsdSx9gcK5LQieTBJwW87SPQlfDBn8kGkL6JLDh
4XWmVLgcQ4Du1lfm2HGiJ8jWc0nlq+TuvVTW3pEDIKcdKKVzIhTO5aX2SpJ9CV85
qCsc3XIhJzz7zLUdnrSzIAA=
-----END CERTIFICATE REQUEST-----
