Certificate:
    Data:
        Version: 3 (0x2)
        Serial Number:
            0c:e5:f0:73:bc:46:dd:bb:3c:59:2e:94:98:ca:86:a5:a4:3b:75:f6
        Signature Algorithm: ED448
        Issuer: C=NO, ST=Oslo, L=Oslo, O=TLS Experts, CN=Intermediate CA
        Validity
            Not Before: Aug 10 07:31:54 2025 GMT
            Not After : Aug 10 07:31:54 2026 GMT
        Subject: C=NO, ST=Oslo, L=Oslo, O=TLS Experts, CN=server2.tls-experts.no
        Subject Public Key Info:
            Public Key Algorithm: ED448
                ED448 Public-Key:
                pub:
                    e4:3f:7d:53:46:a8:33:fc:eb:ac:2a:9c:04:08:d8:
                    98:c7:9a:b4:e9:8e:18:7d:1c:99:da:5c:6c:44:76:
                    8d:a5:fc:b3:04:9f:01:c3:9a:d3:82:5e:ed:6a:a3:
                    96:78:94:2d:f3:04:0c:d2:31:30:b0:00
        X509v3 extensions:
            X509v3 Subject Key Identifier: 
                E9:35:51:13:86:DB:C5:61:02:AE:A6:BB:ED:2E:CB:46:C0:33:F9:D9
            X509v3 Authority Key Identifier: 
                EF:66:F2:E6:7A:A0:E6:9B:CF:6F:BA:19:42:45:63:F4:CD:9E:67:11
            X509v3 Basic Constraints: critical
                CA:FALSE
            Netscape Cert Type: 
                SSL Server
            X509v3 Key Usage: critical
                Digital Signature, Key Encipherment
            X509v3 Extended Key Usage: 
                TLS Web Server Authentication
            X509v3 CRL Distribution Points: 
                Full Name:
                  URI:http://crl.tls-experts.no/intermediate_crl.der

            Authority Information Access: 
                OCSP - URI:http://ocsp.tls-experts.no/
    Signature Algorithm: ED448
    Signature Value:
        63:5c:c4:82:29:d8:d7:ad:c2:ee:1a:f2:5e:70:7a:43:13:24:
        ea:1e:7e:8b:cd:b6:86:3b:d1:71:76:ab:c2:08:3a:9e:73:1e:
        d1:a9:30:20:73:ea:f3:13:5a:f8:2d:cc:2a:28:bb:b9:4e:8e:
        29:20:80:1e:35:50:2a:d8:f8:20:eb:d8:5b:a7:fb:19:46:77:
        d2:7c:e5:a1:9c:03:b6:a3:d2:98:f1:20:82:92:4d:06:b2:f6:
        ab:74:1f:da:db:0c:14:fb:22:66:1f:d5:f6:5e:09:b9:07:02:
        4b:39:81:a1:1a:00
-----BEGIN CERTIFICATE-----
MIIC0DCCAlCgAwIBAgIUDOXwc7xG3bs8WS6UmMqGpaQ7dfYwBQYDK2VxMFsxCzAJ
BgNVBAYTAk5PMQ0wCwYDVQQIDARPc2xvMQ0wCwYDVQQHDARPc2xvMRQwEgYDVQQK
DAtUTFMgRXhwZXJ0czEYMBYGA1UEAwwPSW50ZXJtZWRpYXRlIENBMB4XDTI1MDgx
MDA3MzE1NFoXDTI2MDgxMDA3MzE1NFowYjELMAkGA1UEBhMCTk8xDTALBgNVBAgM
BE9zbG8xDTALBgNVBAcMBE9zbG8xFDASBgNVBAoMC1RMUyBFeHBlcnRzMR8wHQYD
VQQDDBZzZXJ2ZXIyLnRscy1leHBlcnRzLm5vMEMwBQYDK2VxAzoA5D99U0aoM/zr
rCqcBAjYmMeatOmOGH0cmdpcbER2jaX8swSfAcOa04Je7WqjlniULfMEDNIxMLAA
o4IBBDCCAQAwHQYDVR0OBBYEFOk1UROG28VhAq6mu+0uy0bAM/nZMB8GA1UdIwQY
MBaAFO9m8uZ6oOabz2+6GUJFY/TNnmcRMAwGA1UdEwEB/wQCMAAwEQYJYIZIAYb4
QgEBBAQDAgZAMA4GA1UdDwEB/wQEAwIFoDATBgNVHSUEDDAKBggrBgEFBQcDATA/
BgNVHR8EODA2MDSgMqAwhi5odHRwOi8vY3JsLnRscy1leHBlcnRzLm5vL2ludGVy
bWVkaWF0ZV9jcmwuZGVyMDcGCCsGAQUFBwEBBCswKTAnBggrBgEFBQcwAYYbaHR0
cDovL29jc3AudGxzLWV4cGVydHMubm8vMAUGAytlcQNzAGNcxIIp2Netwu4a8l5w
ekMTJOoefovNtoY70XF2q8IIOp5zHtGpMCBz6vMTWvgtzCoou7lOjikggB41UCrY
+CDr2Fun+xlGd9J85aGcA7aj0pjxIIKSTQay9qt0H9rbDBT7ImYf1fZeCbkHAks5
gaEaAA==
-----END CERTIFICATE-----
