Certificate:
    Data:
        Version: 3 (0x2)
        Serial Number:
            6b:5a:0c:8a:b8:a2:bc:65:9d:a2:0c:38:4e:75:03:10:78:97:0b:a9
        Signature Algorithm: ED448
        Issuer: C=NO, ST=Oslo, L=Oslo, O=TLS Experts, CN=Intermediate CA
        Validity
            Not Before: Aug  9 19:13:39 2025 GMT
            Not After : Aug  9 19:13:39 2026 GMT
        Subject: C=NO, ST=Oslo, L=Oslo, O=TLS Experts, CN=internal.tls-experts.no
        Subject Public Key Info:
            Public Key Algorithm: ED448
                ED448 Public-Key:
                pub:
                    92:be:fe:bd:28:10:bf:00:2f:2e:db:5b:69:43:84:
                    6c:a5:d3:5a:2e:11:0c:d1:39:76:86:1a:e9:5a:ce:
                    4f:5e:cf:34:e4:2a:0a:1d:e2:81:c6:fc:e9:ec:e8:
                    b0:f5:8f:4d:b9:9a:7c:e3:7d:ca:79:80
        X509v3 extensions:
            X509v3 Subject Key Identifier: 
                D6:26:E1:75:0F:BF:67:E2:4E:C1:27:44:BF:9D:C3:6A:71:4E:73:BA
            X509v3 Authority Key Identifier: 
                EF:66:F2:E6:7A:A0:E6:9B:CF:6F:BA:19:42:45:63:F4:CD:9E:67:11
            X509v3 Basic Constraints: critical
                CA:FALSE
            Netscape Cert Type: 
                SSL Server
            X509v3 Key Usage: critical
                Digital Signature, Key Encipherment
            X509v3 Extended Key Usage: 
                TLS Web Server Authentication
            X509v3 CRL Distribution Points: 
                Full Name:
                  URI:http://crl.tls-experts.no/intermediate_crl.der

            Authority Information Access: 
                OCSP - URI:http://ocsp.tls-experts.no/
            X509v3 Subject Alternative Name: 
                DNS:mirror1.tls-experts.no, DNS:mirror2.tls-experts.no
    Signature Algorithm: ED448
    Signature Value:
        1b:18:d4:f6:c6:4c:bd:c6:69:f6:fd:1b:c0:72:10:3d:85:18:
        78:46:40:7f:d7:ef:23:c7:17:fc:55:9f:d4:e8:a7:f6:59:69:
        59:46:2d:8a:98:03:15:28:a4:17:66:20:64:0a:2a:4a:d6:b5:
        a1:e4:80:7c:bd:88:ef:08:c0:33:f8:b3:7c:ae:75:49:6e:d3:
        56:aa:c9:1f:de:5c:3e:3f:4a:e1:3f:8e:32:ea:fb:0e:4d:ca:
        bf:4a:dd:89:65:5f:d5:b7:1e:47:fb:31:76:43:41:fc:ff:e7:
        04:3b:02:3d:0b:00
-----BEGIN CERTIFICATE-----
MIIDDDCCAoygAwIBAgIUa1oMiriivGWdogw4TnUDEHiXC6kwBQYDK2VxMFsxCzAJ
BgNVBAYTAk5PMQ0wCwYDVQQIDARPc2xvMQ0wCwYDVQQHDARPc2xvMRQwEgYDVQQK
DAtUTFMgRXhwZXJ0czEYMBYGA1UEAwwPSW50ZXJtZWRpYXRlIENBMB4XDTI1MDgw
OTE5MTMzOVoXDTI2MDgwOTE5MTMzOVowYzELMAkGA1UEBhMCTk8xDTALBgNVBAgM
BE9zbG8xDTALBgNVBAcMBE9zbG8xFDASBgNVBAoMC1RMUyBFeHBlcnRzMSAwHgYD
VQQDDBdpbnRlcm5hbC50bHMtZXhwZXJ0cy5ubzBDMAUGAytlcQM6AJK+/r0oEL8A
Ly7bW2lDhGyl01ouEQzROXaGGulazk9ezzTkKgod4oHG/Ons6LD1j025mnzjfcp5
gKOCAT8wggE7MB0GA1UdDgQWBBTWJuF1D79n4k7BJ0S/ncNqcU5zujAfBgNVHSME
GDAWgBTvZvLmeqDmm89vuhlCRWP0zZ5nETAMBgNVHRMBAf8EAjAAMBEGCWCGSAGG
+EIBAQQEAwIGQDAOBgNVHQ8BAf8EBAMCBaAwEwYDVR0lBAwwCgYIKwYBBQUHAwEw
PwYDVR0fBDgwNjA0oDKgMIYuaHR0cDovL2NybC50bHMtZXhwZXJ0cy5uby9pbnRl
cm1lZGlhdGVfY3JsLmRlcjA3BggrBgEFBQcBAQQrMCkwJwYIKwYBBQUHMAGGG2h0
dHA6Ly9vY3NwLnRscy1leHBlcnRzLm5vLzA5BgNVHREEMjAwghZtaXJyb3IxLnRs
cy1leHBlcnRzLm5vghZtaXJyb3IyLnRscy1leHBlcnRzLm5vMAUGAytlcQNzABsY
1PbGTL3Gafb9G8ByED2FGHhGQH/X7yPHF/xVn9Top/ZZaVlGLYqYAxUopBdmIGQK
KkrWtaHkgHy9iO8IwDP4s3yudUlu01aqyR/eXD4/SuE/jjLq+w5Nyr9K3YllX9W3
Hkf7MXZDQfz/5wQ7Aj0LAA==
-----END CERTIFICATE-----
