Certificate Request:
    Data:
        Version: 1 (0x0)
        Subject: C=NO, ST=Oslo, L=Oslo, O=TLS Experts, CN=internal.tls-experts.no
        Subject Public Key Info:
            Public Key Algorithm: ED448
                ED448 Public-Key:
                pub:
                    92:be:fe:bd:28:10:bf:00:2f:2e:db:5b:69:43:84:
                    6c:a5:d3:5a:2e:11:0c:d1:39:76:86:1a:e9:5a:ce:
                    4f:5e:cf:34:e4:2a:0a:1d:e2:81:c6:fc:e9:ec:e8:
                    b0:f5:8f:4d:b9:9a:7c:e3:7d:ca:79:80
        Attributes:
            Requested Extensions:
                X509v3 Subject Alternative Name: 
                    DNS:mirror1.tls-experts.no, DNS:mirror2.tls-experts.no
    Signature Algorithm: ED448
    Signature Value:
        67:02:47:aa:99:25:a1:3b:d8:2e:1c:b2:18:91:0d:43:fb:cc:
        3c:ca:d0:88:46:e1:21:b0:aa:d3:db:87:7c:32:59:ae:f1:02:
        cc:2c:20:4f:ae:62:9d:98:b9:3c:9d:25:d7:8d:65:b2:54:b4:
        4e:c1:00:d4:e3:09:5c:2a:06:12:3b:a0:1c:74:28:8f:1f:ad:
        45:1a:75:30:1c:b8:ae:18:8a:48:03:6e:ed:7a:56:a3:d5:69:
        81:17:cd:1e:32:b8:aa:7c:05:b8:e4:42:cc:51:b5:f1:25:18:
        e4:4a:d4:0a:0a:00
-----BEGIN CERTIFICATE REQUEST-----
MIIBejCB+wIBADBjMQswCQYDVQQGEwJOTzENMAsGA1UECAwET3NsbzENMAsGA1UE
BwwET3NsbzEUMBIGA1UECgwLVExTIEV4cGVydHMxIDAeBgNVBAMMF2ludGVybmFs
LnRscy1leHBlcnRzLm5vMEMwBQYDK2VxAzoAkr7+vSgQvwAvLttbaUOEbKXTWi4R
DNE5doYa6VrOT17PNOQqCh3igcb86ezosPWPTbmafON9ynmAoEwwSgYJKoZIhvcN
AQkOMT0wOzA5BgNVHREEMjAwghZtaXJyb3IxLnRscy1leHBlcnRzLm5vghZtaXJy
b3IyLnRscy1leHBlcnRzLm5vMAUGAytlcQNzAGcCR6qZJaE72C4cshiRDUP7zDzK
0IhG4SGwqtPbh3wyWa7xAswsIE+uYp2YuTydJdeNZbJUtE7BANTjCVwqBhI7oBx0
KI8frUUadTAcuK4YikgDbu16VqPVaYEXzR4yuKp8BbjkQsxRtfElGORK1AoKAA==
-----END CERTIFICATE REQUEST-----
