Certificate:
    Data:
        Version: 3 (0x2)
        Serial Number:
            36:59:c5:ea:37:f7:b5:7b:6c:f7:2e:0f:37:36:e9:f6:ac:a3:33:f9
        Signature Algorithm: ED448
        Issuer: C=NO, ST=Oslo, L=Oslo, O=TLS Experts, CN=Root CA
        Validity
            Not Before: Aug  9 18:36:59 2025 GMT
            Not After : Aug  7 18:36:59 2035 GMT
        Subject: C=NO, ST=Oslo, L=Oslo, O=TLS Experts, CN=Intermediate CA
        Subject Public Key Info:
            Public Key Algorithm: ED448
                ED448 Public-Key:
                pub:
                    02:47:45:dd:b7:4c:e7:10:dc:89:2d:e8:26:eb:c3:
                    bb:1f:6c:f4:df:63:1a:2c:a6:16:a0:28:4d:24:bb:
                    9b:2b:84:14:81:9b:31:8b:cd:c4:98:de:a2:0a:68:
                    e8:08:8b:70:e3:fd:4a:0a:36:ab:1a:80
        X509v3 extensions:
            X509v3 Subject Key Identifier: 
                EF:66:F2:E6:7A:A0:E6:9B:CF:6F:BA:19:42:45:63:F4:CD:9E:67:11
            X509v3 Authority Key Identifier: 
                1B:7D:4A:B2:F3:B4:21:71:2A:80:9A:D0:1C:FD:06:FC:FE:01:45:84
            X509v3 Basic Constraints: critical
                CA:TRUE, pathlen:0
            X509v3 Key Usage: critical
                Digital Signature, Certificate Sign, CRL Sign
            X509v3 CRL Distribution Points: 
                Full Name:
                  URI:http://crl.tls-experts.no/root_crl.der

    Signature Algorithm: ED448
    Signature Value:
        00:b3:3f:06:90:3f:32:1f:e2:e0:d1:6b:fe:0e:fa:70:fe:5d:
        d3:b9:57:93:8b:12:1c:72:23:0a:1c:93:ef:ce:3d:a9:64:ed:
        e8:ff:bd:d4:5f:a4:ae:b1:94:10:17:dd:84:64:5f:61:eb:6d:
        13:fd:80:08:89:fb:0e:5d:93:79:31:f7:c7:2b:1f:f0:8b:0d:
        5b:f4:8a:4e:ea:21:1d:d2:f3:78:6a:7f:9d:00:b2:61:46:a7:
        57:89:3a:1d:f7:d7:bc:21:af:a7:18:a0:a5:e1:15:b1:cc:2a:
        f3:5a:58:c6:15:00
-----BEGIN CERTIFICATE-----
MIICXDCCAdygAwIBAgIUNlnF6jf3tXts9y4PNzbp9qyjM/kwBQYDK2VxMFMxCzAJ
BgNVBAYTAk5PMQ0wCwYDVQQIDARPc2xvMQ0wCwYDVQQHDARPc2xvMRQwEgYDVQQK
DAtUTFMgRXhwZXJ0czEQMA4GA1UEAwwHUm9vdCBDQTAeFw0yNTA4MDkxODM2NTla
Fw0zNTA4MDcxODM2NTlaMFsxCzAJBgNVBAYTAk5PMQ0wCwYDVQQIDARPc2xvMQ0w
CwYDVQQHDARPc2xvMRQwEgYDVQQKDAtUTFMgRXhwZXJ0czEYMBYGA1UEAwwPSW50
ZXJtZWRpYXRlIENBMEMwBQYDK2VxAzoAAkdF3bdM5xDciS3oJuvDux9s9N9jGiym
FqAoTSS7myuEFIGbMYvNxJjeogpo6AiLcOP9Sgo2qxqAo4GgMIGdMB0GA1UdDgQW
BBTvZvLmeqDmm89vuhlCRWP0zZ5nETAfBgNVHSMEGDAWgBQbfUqy87QhcSqAmtAc
/Qb8/gFFhDASBgNVHRMBAf8ECDAGAQH/AgEAMA4GA1UdDwEB/wQEAwIBhjA3BgNV
HR8EMDAuMCygKqAohiZodHRwOi8vY3JsLnRscy1leHBlcnRzLm5vL3Jvb3RfY3Js
LmRlcjAFBgMrZXEDcwAAsz8GkD8yH+Lg0Wv+Dvpw/l3TuVeTixIcciMKHJPvzj2p
ZO3o/73UX6SusZQQF92EZF9h620T/YAIifsOXZN5MffHKx/wiw1b9IpO6iEd0vN4
an+dALJhRqdXiTod99e8Ia+nGKCl4RWxzCrzWljGFQA=
-----END CERTIFICATE-----
Certificate:
    Data:
        Version: 3 (0x2)
        Serial Number:
            26:32:fe:d9:34:e4:d4:b9:ba:2d:f1:39:56:d8:03:34:82:02:7f:fb
        Signature Algorithm: ED448
        Issuer: C=NO, ST=Oslo, L=Oslo, O=TLS Experts, CN=Root CA
        Validity
            Not Before: Aug  9 17:35:05 2025 GMT
            Not After : Aug  7 17:35:05 2035 GMT
        Subject: C=NO, ST=Oslo, L=Oslo, O=TLS Experts, CN=Root CA
        Subject Public Key Info:
            Public Key Algorithm: ED448
                ED448 Public-Key:
                pub:
                    d2:fa:df:0b:ce:c3:20:bf:0a:e8:07:0f:18:59:27:
                    e8:75:3d:77:e5:b5:23:b6:c9:11:be:29:c5:47:cf:
                    7e:d0:ef:00:4a:95:1f:63:e2:69:0a:b4:a9:34:7e:
                    54:61:8f:a1:32:cf:28:dc:c5:20:74:80
        X509v3 extensions:
            X509v3 Subject Key Identifier: 
                1B:7D:4A:B2:F3:B4:21:71:2A:80:9A:D0:1C:FD:06:FC:FE:01:45:84
            X509v3 Authority Key Identifier: 
                1B:7D:4A:B2:F3:B4:21:71:2A:80:9A:D0:1C:FD:06:FC:FE:01:45:84
            X509v3 Basic Constraints: critical
                CA:TRUE
            X509v3 Key Usage: critical
                Digital Signature, Certificate Sign, CRL Sign
            X509v3 CRL Distribution Points: 
                Full Name:
                  URI:http://crl.tls-experts.no/root_crl.der

    Signature Algorithm: ED448
    Signature Value:
        e7:fa:fb:55:59:95:4c:90:bc:36:46:fe:c3:6a:f4:15:30:e4:
        77:82:ca:18:e4:4e:8c:2d:03:8b:86:e0:58:71:a9:d6:ee:f2:
        42:2c:43:00:ec:a6:8a:5d:60:f6:60:9c:e1:0a:0f:68:13:d7:
        c3:f9:00:b6:77:a7:b0:8a:38:1c:bd:70:4f:61:da:98:0d:28:
        de:a2:79:c1:eb:04:49:7a:81:5f:a8:78:29:38:84:34:a3:d2:
        38:81:e4:a4:a7:20:76:54:a6:07:28:c3:99:2f:53:31:62:40:
        95:8c:a3:dd:1a:00
-----BEGIN CERTIFICATE-----
MIICUTCCAdGgAwIBAgIUJjL+2TTk1Lm6LfE5VtgDNIICf/swBQYDK2VxMFMxCzAJ
BgNVBAYTAk5PMQ0wCwYDVQQIDARPc2xvMQ0wCwYDVQQHDARPc2xvMRQwEgYDVQQK
DAtUTFMgRXhwZXJ0czEQMA4GA1UEAwwHUm9vdCBDQTAeFw0yNTA4MDkxNzM1MDVa
Fw0zNTA4MDcxNzM1MDVaMFMxCzAJBgNVBAYTAk5PMQ0wCwYDVQQIDARPc2xvMQ0w
CwYDVQQHDARPc2xvMRQwEgYDVQQKDAtUTFMgRXhwZXJ0czEQMA4GA1UEAwwHUm9v
dCBDQTBDMAUGAytlcQM6ANL63wvOwyC/CugHDxhZJ+h1PXfltSO2yRG+KcVHz37Q
7wBKlR9j4mkKtKk0flRhj6EyzyjcxSB0gKOBnTCBmjAdBgNVHQ4EFgQUG31KsvO0
IXEqgJrQHP0G/P4BRYQwHwYDVR0jBBgwFoAUG31KsvO0IXEqgJrQHP0G/P4BRYQw
DwYDVR0TAQH/BAUwAwEB/zAOBgNVHQ8BAf8EBAMCAYYwNwYDVR0fBDAwLjAsoCqg
KIYmaHR0cDovL2NybC50bHMtZXhwZXJ0cy5uby9yb290X2NybC5kZXIwBQYDK2Vx
A3MA5/r7VVmVTJC8Nkb+w2r0FTDkd4LKGOROjC0Di4bgWHGp1u7yQixDAOymil1g
9mCc4QoPaBPXw/kAtnensIo4HL1wT2HamA0o3qJ5wesESXqBX6h4KTiENKPSOIHk
pKcgdlSmByjDmS9TMWJAlYyj3RoA
-----END CERTIFICATE-----
