Certificate Request:
    Data:
        Version: 1 (0x0)
        Subject: C=NO, ST=Oslo, L=Oslo, O=TLS Experts, CN=Thor Odinson, emailAddress=thor@tls-experts.no
        Subject Public Key Info:
            Public Key Algorithm: ED448
                ED448 Public-Key:
                pub:
                    61:3a:4d:b8:6d:e4:6b:2d:d8:1f:7f:90:1e:a5:2a:
                    a5:fe:8e:26:40:5f:95:69:1f:ab:8a:97:27:dd:24:
                    db:7c:e1:5d:43:e2:31:27:0a:a9:24:fa:19:7a:38:
                    c4:f7:08:95:99:83:33:f2:6e:3c:27:00
        Attributes:
            Requested Extensions:
                X509v3 Subject Alternative Name: 
                    email:postmaster@tls-experts.no, email:hostmaster@tls-experts.no
    Signature Algorithm: ED448
    Signature Value:
        5f:b9:3f:80:e0:58:2e:c9:a0:a1:02:10:44:7d:7a:93:69:56:
        3d:60:ec:c0:ce:77:77:af:fa:c7:71:b7:c7:5f:b4:da:3b:f3:
        8c:88:5d:62:0e:f7:3e:b9:d7:e3:6c:5f:c9:50:3e:d8:47:c8:
        6f:08:00:e2:27:fd:97:dc:d7:9d:aa:cf:b0:23:49:a8:df:e3:
        f2:08:79:a6:54:d0:6c:cd:86:db:a8:2c:cd:2f:1a:d4:5e:ad:
        2f:cf:84:7b:2f:79:c9:a3:44:a6:3c:6a:23:91:26:93:2c:38:
        eb:49:bc:89:1b:00
-----BEGIN CERTIFICATE REQUEST-----
MIIBmjCCARoCAQAwfDELMAkGA1UEBhMCTk8xDTALBgNVBAgMBE9zbG8xDTALBgNV
BAcMBE9zbG8xFDASBgNVBAoMC1RMUyBFeHBlcnRzMRUwEwYDVQQDDAxUaG9yIE9k
aW5zb24xIjAgBgkqhkiG9w0BCQEWE3Rob3JAdGxzLWV4cGVydHMubm8wQzAFBgMr
ZXEDOgBhOk24beRrLdgff5AepSql/o4mQF+VaR+ripcn3STbfOFdQ+IxJwqpJPoZ
ejjE9wiVmYMz8m48JwCgUjBQBgkqhkiG9w0BCQ4xQzBBMD8GA1UdEQQ4MDaBGXBv
c3RtYXN0ZXJAdGxzLWV4cGVydHMubm+BGWhvc3RtYXN0ZXJAdGxzLWV4cGVydHMu
bm8wBQYDK2VxA3MAX7k/gOBYLsmgoQIQRH16k2lWPWDswM53d6/6x3G3x1+02jvz
jIhdYg73PrnX42xfyVA+2EfIbwgA4if9l9zXnarPsCNJqN/j8gh5plTQbM2G26gs
zS8a1F6tL8+Eey95yaNEpjxqI5Emkyw460m8iRsA
-----END CERTIFICATE REQUEST-----
