Certificate:
    Data:
        Version: 3 (0x2)
        Serial Number:
            14:f9:2b:25:1e:b4:fe:59:f4:39:b9:30:82:a9:22:f3:0e:31:27:e1
        Signature Algorithm: ED448
        Issuer: C=NO, ST=Oslo, L=Oslo, O=TLS Experts, CN=Intermediate CA
        Validity
            Not Before: Aug 10 06:49:54 2025 GMT
            Not After : Aug 10 06:49:54 2026 GMT
        Subject: C=NO, ST=Oslo, L=Oslo, O=TLS Experts, CN=Thor Odinson/emailAddress=thor@tls-experts.no
        Subject Public Key Info:
            Public Key Algorithm: ED448
                ED448 Public-Key:
                pub:
                    61:3a:4d:b8:6d:e4:6b:2d:d8:1f:7f:90:1e:a5:2a:
                    a5:fe:8e:26:40:5f:95:69:1f:ab:8a:97:27:dd:24:
                    db:7c:e1:5d:43:e2:31:27:0a:a9:24:fa:19:7a:38:
                    c4:f7:08:95:99:83:33:f2:6e:3c:27:00
        X509v3 extensions:
            X509v3 Subject Key Identifier: 
                48:58:83:A5:EB:4C:58:F7:23:74:61:0D:99:2C:46:6E:C3:DB:48:00
            X509v3 Authority Key Identifier: 
                EF:66:F2:E6:7A:A0:E6:9B:CF:6F:BA:19:42:45:63:F4:CD:9E:67:11
            X509v3 Basic Constraints: critical
                CA:FALSE
            Netscape Cert Type: 
                SSL Client, S/MIME
            X509v3 Key Usage: critical
                Digital Signature, Non Repudiation, Key Encipherment
            X509v3 Extended Key Usage: 
                TLS Web Client Authentication, E-mail Protection
            X509v3 CRL Distribution Points: 
                Full Name:
                  URI:http://crl.tls-experts.no/intermediate_crl.der

            Authority Information Access: 
                OCSP - URI:http://ocsp.tls-experts.no/
            X509v3 Subject Alternative Name: 
                email:postmaster@tls-experts.no, email:hostmaster@tls-experts.no
    Signature Algorithm: ED448
    Signature Value:
        4c:d5:38:3a:7a:93:c4:72:68:f2:a4:bc:bc:09:6d:70:29:c8:
        8b:b4:c4:96:01:81:90:e5:89:2e:6d:db:2f:33:9a:a2:b3:24:
        e6:48:c7:d5:5a:bd:ad:18:5c:41:ca:66:72:da:c1:c3:d9:7f:
        46:b2:80:b4:d3:da:02:38:e9:81:2c:05:4d:6b:04:8d:7f:c9:
        dc:5d:ea:24:0c:fe:d5:b9:d9:6d:0d:45:b5:c6:3b:cb:d8:2b:
        19:1e:31:e4:c2:b4:d9:52:3c:44:c4:98:68:4e:52:89:d8:18:
        f8:fc:24:f9:17:00
-----BEGIN CERTIFICATE-----
MIIDNTCCArWgAwIBAgIUFPkrJR60/ln0Obkwgqki8w4xJ+EwBQYDK2VxMFsxCzAJ
BgNVBAYTAk5PMQ0wCwYDVQQIDARPc2xvMQ0wCwYDVQQHDARPc2xvMRQwEgYDVQQK
DAtUTFMgRXhwZXJ0czEYMBYGA1UEAwwPSW50ZXJtZWRpYXRlIENBMB4XDTI1MDgx
MDA2NDk1NFoXDTI2MDgxMDA2NDk1NFowfDELMAkGA1UEBhMCTk8xDTALBgNVBAgM
BE9zbG8xDTALBgNVBAcMBE9zbG8xFDASBgNVBAoMC1RMUyBFeHBlcnRzMRUwEwYD
VQQDDAxUaG9yIE9kaW5zb24xIjAgBgkqhkiG9w0BCQEWE3Rob3JAdGxzLWV4cGVy
dHMubm8wQzAFBgMrZXEDOgBhOk24beRrLdgff5AepSql/o4mQF+VaR+ripcn3STb
fOFdQ+IxJwqpJPoZejjE9wiVmYMz8m48JwCjggFPMIIBSzAdBgNVHQ4EFgQUSFiD
petMWPcjdGENmSxGbsPbSAAwHwYDVR0jBBgwFoAU72by5nqg5pvPb7oZQkVj9M2e
ZxEwDAYDVR0TAQH/BAIwADARBglghkgBhvhCAQEEBAMCBaAwDgYDVR0PAQH/BAQD
AgXgMB0GA1UdJQQWMBQGCCsGAQUFBwMCBggrBgEFBQcDBDA/BgNVHR8EODA2MDSg
MqAwhi5odHRwOi8vY3JsLnRscy1leHBlcnRzLm5vL2ludGVybWVkaWF0ZV9jcmwu
ZGVyMDcGCCsGAQUFBwEBBCswKTAnBggrBgEFBQcwAYYbaHR0cDovL29jc3AudGxz
LWV4cGVydHMubm8vMD8GA1UdEQQ4MDaBGXBvc3RtYXN0ZXJAdGxzLWV4cGVydHMu
bm+BGWhvc3RtYXN0ZXJAdGxzLWV4cGVydHMubm8wBQYDK2VxA3MATNU4OnqTxHJo
8qS8vAltcCnIi7TElgGBkOWJLm3bLzOaorMk5kjH1Vq9rRhcQcpmctrBw9l/RrKA
tNPaAjjpgSwFTWsEjX/J3F3qJAz+1bnZbQ1FtcY7y9grGR4x5MK02VI8RMSYaE5S
idgY+Pwk+RcA
-----END CERTIFICATE-----
